target datalayout = "e-m:e-p270:32:32-p271:32:32-p272:64:64-i64:64-i128:128-f80:128-n8:16:32:64-S128"
target triple = "x86_64-unknown-linux-gnu"

%"class.icu_75::ScriptRunIterator" = type <{ ptr, i32, i32, i32, i32, i32, [4 x i8] }>

; Function Attrs: mustprogress nounwind uwtable
define void @_ZN6icu_7517ScriptRunIteratorC2ERKNS_11ReplaceableEii(ptr noundef nonnull align 8 dereferenceable(28) %this, ptr noundef nonnull align 8 dereferenceable(8) %theText, i32 noundef %myStart, i32 noundef %myLimit) unnamed_addr #0 align 2 {
entry:
  %this.addr = alloca ptr, align 8
  %theText.addr = alloca ptr, align 8
  %myStart.addr = alloca i32, align 4
  %myLimit.addr = alloca i32, align 4
  store ptr %this, ptr %this.addr, align 8
  store ptr %theText, ptr %theText.addr, align 8
  store i32 %myStart, ptr %myStart.addr, align 4
  store i32 %myLimit, ptr %myLimit.addr, align 4
  %this1 = load ptr, ptr %this.addr, align 8
  %text = getelementptr inbounds %"class.icu_75::ScriptRunIterator", ptr %this1, i32 0, i32 0
  %0 = load ptr, ptr %theText.addr, align 8
  store ptr %0, ptr %text, align 8
  %1 = load i32, ptr %myStart.addr, align 4
  %textStart = getelementptr inbounds %"class.icu_75::ScriptRunIterator", ptr %this1, i32 0, i32 1
  store i32 %1, ptr %textStart, align 8
  %2 = load i32, ptr %myLimit.addr, align 4
  %textLimit = getelementptr inbounds %"class.icu_75::ScriptRunIterator", ptr %this1, i32 0, i32 2
  store i32 %2, ptr %textLimit, align 4
  %3 = load i32, ptr %myStart.addr, align 4
  %limit = getelementptr inbounds %"class.icu_75::ScriptRunIterator", ptr %this1, i32 0, i32 5
  store i32 %3, ptr %limit, align 8
  ret void
}