; Function Attrs: mustprogress nofree norecurse nosync nounwind willreturn memory(argmem: write) uwtable
define void @_ZN6icu_7517ScriptRunIteratorC2ERKNS_11ReplaceableEii(ptr nocapture noundef nonnull writeonly align 8 dereferenceable(28) %this, ptr noundef nonnull align 8 dereferenceable(8) %theText, i32 noundef %myStart, i32 noundef %myLimit) unnamed_addr #0 align 2 {
entry:
  store ptr %theText, ptr %this, align 8
  %textStart = getelementptr inbounds i8, ptr %this, i64 8
  store i32 %myStart, ptr %textStart, align 8
  %textLimit = getelementptr inbounds i8, ptr %this, i64 12
  store i32 %myLimit, ptr %textLimit, align 4
  %limit = getelementptr inbounds i8, ptr %this, i64 24
  store i32 %myStart, ptr %limit, align 8
  ret void
}